target datalayout = "e-m:e-p270:32:32-p271:32:32-p272:64:64-i64:64-i128:128-f80:128-n8:16:32:64-S128"
target triple = "x86_64-pc-linux-gnu"

%struct.ident_t = type { i32, i32, i32, i32, ptr }
%class.anon.131 = type { ptr }

@1 = private unnamed_addr constant %struct.ident_t { i32 0, i32 514, i32 0, i32 22, ptr @0 }, align 8

; Function Attrs: mustprogress nounwind ssp uwtable
define linkonce_odr noundef zeroext i1 @_ZSt5isnand(double noundef %0) #1 comdat {
  %2 = alloca double, align 8
  store double %0, ptr %2, align 8, !tbaa !272
  %3 = load double, ptr %2, align 8, !tbaa !272
  %4 = call i1 @llvm.is.fpclass.f64(double %3, i32 3)
  ret i1 %4
}

; Function Attrs: noinline noreturn nounwind ssp uwtable
define linkonce_odr hidden void @__clang_call_terminate(ptr noundef %0) #14 comdat {
  %2 = call ptr @__cxa_begin_catch(ptr %0) #7
  call void @_ZSt9terminatev() #32
  unreachable
}

; Function Attrs: inlinehint mustprogress nounwind ssp uwtable
define internal void @"_ZZZZN6open3d1t8geometry6kernel12trianglemesh19NormalizeNormalsCPUERNS_4core6TensorEENK3$_0clEvENKUlvE0_clEvENKUllE_clEl"(ptr noundef nonnull align 8 dereferenceable(8) %0, i64 noundef %1) #6 align 2 {
  %3 = alloca ptr, align 8
  %4 = alloca i64, align 8
  %5 = alloca i64, align 8
  %6 = alloca double, align 8
  %7 = alloca double, align 8
  %8 = alloca double, align 8
  %9 = alloca double, align 8
  store ptr %0, ptr %3, align 8, !tbaa !86
  store i64 %1, ptr %4, align 8, !tbaa !30
  %10 = load ptr, ptr %3, align 8
  call void @llvm.lifetime.start.p0(i64 8, ptr %5) #7
  %11 = load i64, ptr %4, align 8, !tbaa !30
  %12 = mul nsw i64 3, %11
  store i64 %12, ptr %5, align 8, !tbaa !30
  call void @llvm.lifetime.start.p0(i64 8, ptr %6) #7
  %13 = getelementptr inbounds nuw %class.anon.131, ptr %10, i32 0, i32 0
  %14 = load ptr, ptr %13, align 8, !tbaa !184
  %15 = load i64, ptr %5, align 8, !tbaa !30
  %16 = getelementptr inbounds double, ptr %14, i64 %15
  %17 = load double, ptr %16, align 8, !tbaa !272
  store double %17, ptr %6, align 8, !tbaa !272
  call void @llvm.lifetime.start.p0(i64 8, ptr %7) #7
  %18 = getelementptr inbounds nuw %class.anon.131, ptr %10, i32 0, i32 0
  %19 = load ptr, ptr %18, align 8, !tbaa !184
  %20 = load i64, ptr %5, align 8, !tbaa !30
  %21 = add nsw i64 %20, 1
  %22 = getelementptr inbounds double, ptr %19, i64 %21
  %23 = load double, ptr %22, align 8, !tbaa !272
  store double %23, ptr %7, align 8, !tbaa !272
  call void @llvm.lifetime.start.p0(i64 8, ptr %8) #7
  %24 = getelementptr inbounds nuw %class.anon.131, ptr %10, i32 0, i32 0
  %25 = load ptr, ptr %24, align 8, !tbaa !184
  %26 = load i64, ptr %5, align 8, !tbaa !30
  %27 = add nsw i64 %26, 2
  %28 = getelementptr inbounds double, ptr %25, i64 %27
  %29 = load double, ptr %28, align 8, !tbaa !272
  store double %29, ptr %8, align 8, !tbaa !272
  %30 = load double, ptr %6, align 8, !tbaa !272
  %31 = call noundef zeroext i1 @_ZSt5isnand(double noundef %30)
  br i1 %31, label %32, label %33

32:                                               ; preds = %2
  store double 0.000000e+00, ptr %6, align 8, !tbaa !272
  store double 0.000000e+00, ptr %7, align 8, !tbaa !272
  store double 1.000000e+00, ptr %8, align 8, !tbaa !272
  br label %74

33:                                               ; preds = %2
  call void @llvm.lifetime.start.p0(i64 8, ptr %9) #7
  %34 = load double, ptr %6, align 8, !tbaa !272
  %35 = load double, ptr %6, align 8, !tbaa !272
  %36 = load double, ptr %7, align 8, !tbaa !272
  %37 = load double, ptr %7, align 8, !tbaa !272
  %38 = fmul double %36, %37
  %39 = call double @llvm.fmuladd.f64(double %34, double %35, double %38)
  %40 = load double, ptr %8, align 8, !tbaa !272
  %41 = load double, ptr %8, align 8, !tbaa !272
  %42 = call double @llvm.fmuladd.f64(double %40, double %41, double %39)
  %43 = call double @sqrt(double noundef %42) #7, !tbaa !121
  store double %43, ptr %9, align 8, !tbaa !272
  %44 = load double, ptr %9, align 8, !tbaa !272
  %45 = fcmp ogt double %44, 0.000000e+00
  br i1 %45, label %46, label %56

46:                                               ; preds = %33
  %47 = load double, ptr %9, align 8, !tbaa !272
  %48 = load double, ptr %6, align 8, !tbaa !272
  %49 = fdiv double %48, %47
  store double %49, ptr %6, align 8, !tbaa !272
  %50 = load double, ptr %9, align 8, !tbaa !272
  %51 = load double, ptr %7, align 8, !tbaa !272
  %52 = fdiv double %51, %50
  store double %52, ptr %7, align 8, !tbaa !272
  %53 = load double, ptr %9, align 8, !tbaa !272
  %54 = load double, ptr %8, align 8, !tbaa !272
  %55 = fdiv double %54, %53
  store double %55, ptr %8, align 8, !tbaa !272
  br label %56

56:                                               ; preds = %46, %33
  %57 = load double, ptr %6, align 8, !tbaa !272
  %58 = getelementptr inbounds nuw %class.anon.131, ptr %10, i32 0, i32 0
  %59 = load ptr, ptr %58, align 8, !tbaa !184
  %60 = load i64, ptr %5, align 8, !tbaa !30
  %61 = getelementptr inbounds double, ptr %59, i64 %60
  store double %57, ptr %61, align 8, !tbaa !272
  %62 = load double, ptr %7, align 8, !tbaa !272
  %63 = getelementptr inbounds nuw %class.anon.131, ptr %10, i32 0, i32 0
  %64 = load ptr, ptr %63, align 8, !tbaa !184
  %65 = load i64, ptr %5, align 8, !tbaa !30
  %66 = add nsw i64 %65, 1
  %67 = getelementptr inbounds double, ptr %64, i64 %66
  store double %62, ptr %67, align 8, !tbaa !272
  %68 = load double, ptr %8, align 8, !tbaa !272
  %69 = getelementptr inbounds nuw %class.anon.131, ptr %10, i32 0, i32 0
  %70 = load ptr, ptr %69, align 8, !tbaa !184
  %71 = load i64, ptr %5, align 8, !tbaa !30
  %72 = add nsw i64 %71, 2
  %73 = getelementptr inbounds double, ptr %70, i64 %72
  store double %68, ptr %73, align 8, !tbaa !272
  call void @llvm.lifetime.end.p0(i64 8, ptr %9) #7
  br label %74

74:                                               ; preds = %56, %32
  call void @llvm.lifetime.end.p0(i64 8, ptr %8) #7
  call void @llvm.lifetime.end.p0(i64 8, ptr %7) #7
  call void @llvm.lifetime.end.p0(i64 8, ptr %6) #7
  call void @llvm.lifetime.end.p0(i64 8, ptr %5) #7
  ret void
}

; Function Attrs: alwaysinline norecurse nounwind ssp uwtable
define internal void @"_ZN6open3d4core15ParallelForCPU_IZZZNS_1t8geometry6kernel12trianglemesh19NormalizeNormalsCPUERNS0_6TensorEENK3$_0clEvENKUlvE0_clEvEUllE_EEvRKNS0_6DeviceElRKT_.omp_outlined"(ptr noalias noundef %0, ptr noalias noundef %1, ptr noundef nonnull align 8 dereferenceable(8) %2, ptr noundef nonnull align 8 dereferenceable(8) %3) #26 personality ptr @__gxx_personality_v0 {
  %5 = alloca ptr, align 8
  %6 = alloca ptr, align 8
  %7 = alloca ptr, align 8
  %8 = alloca ptr, align 8
  %9 = alloca ptr, align 8
  %10 = alloca i64, align 8
  %11 = alloca i64, align 8
  %12 = alloca i64, align 8
  %13 = alloca i64, align 8
  %14 = alloca i64, align 8
  %15 = alloca i64, align 8
  %16 = alloca i64, align 8
  %17 = alloca i32, align 4
  %18 = alloca i64, align 8
  store ptr %0, ptr %5, align 8, !tbaa !93
  store ptr %1, ptr %6, align 8, !tbaa !93
  store ptr %2, ptr %7, align 8, !tbaa !126
  store ptr %3, ptr %8, align 8, !tbaa !86
  %19 = load ptr, ptr %7, align 8, !tbaa !126
  %20 = load ptr, ptr %8, align 8, !tbaa !86
  store ptr %20, ptr %9, align 8
  call void @llvm.lifetime.start.p0(i64 8, ptr %10) #7
  call void @llvm.lifetime.start.p0(i64 8, ptr %11) #7
  %21 = load i64, ptr %19, align 8, !tbaa !30
  store i64 %21, ptr %11, align 8, !tbaa !30
  call void @llvm.lifetime.start.p0(i64 8, ptr %12) #7
  %22 = load i64, ptr %11, align 8, !tbaa !30
  %23 = sub nsw i64 %22, 0
  %24 = sdiv i64 %23, 1
  %25 = sub nsw i64 %24, 1
  store i64 %25, ptr %12, align 8, !tbaa !30
  call void @llvm.lifetime.start.p0(i64 8, ptr %13) #7
  store i64 0, ptr %13, align 8, !tbaa !30
  call void @llvm.lifetime.end.p0(i64 8, ptr %13) #7
  %26 = load i64, ptr %11, align 8, !tbaa !30
  %27 = icmp slt i64 0, %26
  br i1 %27, label %28, label %62

28:                                               ; preds = %4
  call void @llvm.lifetime.start.p0(i64 8, ptr %14) #7
  store i64 0, ptr %14, align 8, !tbaa !30
  call void @llvm.lifetime.start.p0(i64 8, ptr %15) #7
  %29 = load i64, ptr %12, align 8, !tbaa !30
  store i64 %29, ptr %15, align 8, !tbaa !30
  call void @llvm.lifetime.start.p0(i64 8, ptr %16) #7
  store i64 1, ptr %16, align 8, !tbaa !30
  call void @llvm.lifetime.start.p0(i64 4, ptr %17) #7
  store i32 0, ptr %17, align 4, !tbaa !121
  call void @llvm.lifetime.start.p0(i64 8, ptr %18) #7
  %30 = load ptr, ptr %5, align 8
  %31 = load i32, ptr %30, align 4, !tbaa !121
  call void @__kmpc_for_static_init_8(ptr @1, i32 %31, i32 34, ptr %17, ptr %14, ptr %15, ptr %16, i64 1, i64 1)
  %32 = load i64, ptr %15, align 8, !tbaa !30
  %33 = load i64, ptr %12, align 8, !tbaa !30
  %34 = icmp sgt i64 %32, %33
  br i1 %34, label %35, label %37

35:                                               ; preds = %28
  %36 = load i64, ptr %12, align 8, !tbaa !30
  br label %39

37:                                               ; preds = %28
  %38 = load i64, ptr %15, align 8, !tbaa !30
  br label %39

39:                                               ; preds = %37, %35
  %40 = phi i64 [ %36, %35 ], [ %38, %37 ]
  store i64 %40, ptr %15, align 8, !tbaa !30
  %41 = load i64, ptr %14, align 8, !tbaa !30
  store i64 %41, ptr %10, align 8, !tbaa !30
  br label %42

42:                                               ; preds = %55, %39
  %43 = load i64, ptr %10, align 8, !tbaa !30
  %44 = load i64, ptr %15, align 8, !tbaa !30
  %45 = icmp sle i64 %43, %44
  br i1 %45, label %47, label %46

46:                                               ; preds = %42
  br label %58

47:                                               ; preds = %42
  %48 = load i64, ptr %10, align 8, !tbaa !30
  %49 = mul nsw i64 %48, 1
  %50 = add nsw i64 0, %49
  store i64 %50, ptr %18, align 8, !tbaa !30
  %51 = load ptr, ptr %9, align 8, !tbaa !86
  %52 = load i64, ptr %18, align 8, !tbaa !30
  invoke void @"_ZZZZN6open3d1t8geometry6kernel12trianglemesh19NormalizeNormalsCPUERNS_4core6TensorEENK3$_0clEvENKUlvE0_clEvENKUllE_clEl"(ptr noundef nonnull align 8 dereferenceable(8) %51, i64 noundef %52)
          to label %53 unwind label %63

53:                                               ; preds = %47
  br label %54

54:                                               ; preds = %53
  br label %55

55:                                               ; preds = %54
  %56 = load i64, ptr %10, align 8, !tbaa !30
  %57 = add nsw i64 %56, 1
  store i64 %57, ptr %10, align 8, !tbaa !30
  br label %42

58:                                               ; preds = %46
  br label %59

59:                                               ; preds = %58
  %60 = load ptr, ptr %5, align 8
  %61 = load i32, ptr %60, align 4, !tbaa !121
  call void @__kmpc_for_static_fini(ptr @1, i32 %61)
  call void @llvm.lifetime.end.p0(i64 8, ptr %18) #7
  call void @llvm.lifetime.end.p0(i64 4, ptr %17) #7
  call void @llvm.lifetime.end.p0(i64 8, ptr %16) #7
  call void @llvm.lifetime.end.p0(i64 8, ptr %15) #7
  call void @llvm.lifetime.end.p0(i64 8, ptr %14) #7
  br label %62

62:                                               ; preds = %59, %4
  call void @llvm.lifetime.end.p0(i64 8, ptr %12) #7
  call void @llvm.lifetime.end.p0(i64 8, ptr %11) #7
  call void @llvm.lifetime.end.p0(i64 8, ptr %10) #7
  ret void

63:                                               ; preds = %47
  %64 = landingpad { ptr, i32 }
          catch ptr null
  %65 = extractvalue { ptr, i32 } %64, 0
  call void @__clang_call_terminate(ptr %65) #32
  unreachable
}