; Function Attrs: alwaysinline norecurse nounwind ssp uwtable
define internal void @"_ZN6open3d4core15ParallelForCPU_IZZZNS_1t8geometry6kernel12trianglemesh19NormalizeNormalsCPUERNS0_6TensorEENK3$_0clEvENKUlvE0_clEvEUllE_EEvRKNS0_6DeviceElRKT_.omp_outlined"(ptr noalias noundef readonly captures(none) %0, ptr noalias readnone captures(none) %1, ptr noundef nonnull readonly align 8 captures(none) dereferenceable(8) %2, ptr noundef nonnull readonly align 8 captures(none) dereferenceable(8) %3) #25 personality ptr @__gxx_personality_v0 {
  %5 = alloca i64, align 8
  %6 = alloca i64, align 8
  %7 = alloca i64, align 8
  %8 = alloca i32, align 4
  %9 = load i64, ptr %2, align 8, !tbaa !41
  %10 = icmp sgt i64 %9, 0
  br i1 %10, label %11, label %34

11:                                               ; preds = %4
  %12 = add nsw i64 %9, -1
  call void @llvm.lifetime.start.p0(i64 8, ptr nonnull %5) #26
  store i64 0, ptr %5, align 8, !tbaa !41
  call void @llvm.lifetime.start.p0(i64 8, ptr nonnull %6) #26
  store i64 %12, ptr %6, align 8, !tbaa !41
  call void @llvm.lifetime.start.p0(i64 8, ptr nonnull %7) #26
  store i64 1, ptr %7, align 8, !tbaa !41
  call void @llvm.lifetime.start.p0(i64 4, ptr nonnull %8) #26
  store i32 0, ptr %8, align 4, !tbaa !28
  %13 = load i32, ptr %0, align 4, !tbaa !28
  call void @__kmpc_for_static_init_8(ptr nonnull @1, i32 %13, i32 34, ptr nonnull %8, ptr nonnull %5, ptr nonnull %6, ptr nonnull %7, i64 1, i64 1)
  %14 = load i64, ptr %6, align 8, !tbaa !41
  %15 = call i64 @llvm.smin.i64(i64 %14, i64 %12)
  store i64 %15, ptr %6, align 8, !tbaa !41
  %16 = load i64, ptr %5, align 8, !tbaa !41
  %.not13 = icmp sgt i64 %16, %15
  br i1 %.not13, label %._crit_edge, label %.lr.ph

.lr.ph:                                           ; preds = %11
  %.val = load ptr, ptr %3, align 8, !tbaa !55
  br label %17

17:                                               ; preds = %.lr.ph, %"_ZZZZN6open3d1t8geometry6kernel12trianglemesh19NormalizeNormalsCPUERNS_4core6TensorEENK3$_0clEvENKUlvE0_clEvENKUllE_clEl.exit"
  %.014 = phi i64 [ %16, %.lr.ph ], [ %33, %"_ZZZZN6open3d1t8geometry6kernel12trianglemesh19NormalizeNormalsCPUERNS_4core6TensorEENK3$_0clEvENKUlvE0_clEvENKUllE_clEl.exit" ]
  %.idx.i = mul i64 %.014, 24
  %18 = getelementptr i8, ptr %.val, i64 %.idx.i
  %19 = load double, ptr %18, align 8, !tbaa !661
  %20 = fcmp uno double %19, 0.000000e+00
  br i1 %20, label %"_ZZZZN6open3d1t8geometry6kernel12trianglemesh19NormalizeNormalsCPUERNS_4core6TensorEENK3$_0clEvENKUlvE0_clEvENKUllE_clEl.exit", label %21

21:                                               ; preds = %17
  %22 = getelementptr i8, ptr %18, i64 16
  %23 = load double, ptr %22, align 8, !tbaa !661
  %24 = getelementptr i8, ptr %18, i64 8
  %25 = load double, ptr %24, align 8, !tbaa !661
  %26 = fmul double %25, %25
  %27 = call double @llvm.fmuladd.f64(double %19, double %19, double %26)
  %28 = call double @llvm.fmuladd.f64(double %23, double %23, double %27)
  %sqrt.i = call double @llvm.sqrt.f64(double %28)
  %29 = fcmp ogt double %28, 0.000000e+00
  %30 = fdiv double %25, %sqrt.i
  %31 = fdiv double %23, %sqrt.i
  %.025.i = select i1 %29, double %30, double %25
  %.024.i = select i1 %29, double %31, double %23
  %32 = select i1 %29, double %sqrt.i, double 1.000000e+00
  %.0.i = fdiv double %19, %32
  store double %.0.i, ptr %18, align 8, !tbaa !661
  store double %.025.i, ptr %24, align 8, !tbaa !661
  store double %.024.i, ptr %22, align 8, !tbaa !661
  br label %"_ZZZZN6open3d1t8geometry6kernel12trianglemesh19NormalizeNormalsCPUERNS_4core6TensorEENK3$_0clEvENKUlvE0_clEvENKUllE_clEl.exit"

"_ZZZZN6open3d1t8geometry6kernel12trianglemesh19NormalizeNormalsCPUERNS_4core6TensorEENK3$_0clEvENKUlvE0_clEvENKUllE_clEl.exit": ; preds = %17, %21
  %33 = add i64 %.014, 1
  %exitcond.not = icmp eq i64 %.014, %15
  br i1 %exitcond.not, label %._crit_edge, label %17

._crit_edge:                                      ; preds = %"_ZZZZN6open3d1t8geometry6kernel12trianglemesh19NormalizeNormalsCPUERNS_4core6TensorEENK3$_0clEvENKUlvE0_clEvENKUllE_clEl.exit", %11
  call void @__kmpc_for_static_fini(ptr nonnull @1, i32 %13)
  call void @llvm.lifetime.end.p0(i64 4, ptr nonnull %8) #26
  call void @llvm.lifetime.end.p0(i64 8, ptr nonnull %7) #26
  call void @llvm.lifetime.end.p0(i64 8, ptr nonnull %6) #26
  call void @llvm.lifetime.end.p0(i64 8, ptr nonnull %5) #26
  br label %34

34:                                               ; preds = %._crit_edge, %4
  ret void
}